target datalayout = "e-m:e-p270:32:32-p271:32:32-p272:64:64-i64:64-i128:128-f80:128-n8:16:32:64-S128"
target triple = "x86_64-pc-linux-gnu"

%struct.__va_list_tag = type { i32, i32, ptr, ptr }

@stderr = external global ptr, align 8
@.str = private unnamed_addr constant [8 x i8] c"%s:%u: \00", align 1
@gCurrentFileName = external global ptr, align 8
@.str.1 = private unnamed_addr constant [2 x i8] c"\0A\00", align 1
@gShowWarning = internal global i8 1, align 1
@gStrict = internal global i8 0, align 1
@gVerbose = internal global i8 0, align 1
@.str.2 = private unnamed_addr constant [17 x i8] c"%s:%u: warning: \00", align 1

; Function Attrs: nounwind uwtable
define dso_local void @error(i32 noundef %0, ptr noundef %1, ...) #0 {
  %3 = alloca i32, align 4
  %4 = alloca ptr, align 8
  %5 = alloca [1 x %struct.__va_list_tag], align 16
  store i32 %0, ptr %3, align 4, !tbaa !4
  store ptr %1, ptr %4, align 8, !tbaa !8
  call void @llvm.lifetime.start.p0(i64 24, ptr %5) #4
  %6 = getelementptr inbounds [1 x %struct.__va_list_tag], ptr %5, i64 0, i64 0
  call void @llvm.va_start.p0(ptr %6)
  %7 = load ptr, ptr @stderr, align 8, !tbaa !11
  %8 = load ptr, ptr @gCurrentFileName, align 8, !tbaa !8
  %9 = load i32, ptr %3, align 4, !tbaa !4
  %10 = call i32 (ptr, ptr, ...) @fprintf(ptr noundef %7, ptr noundef @.str, ptr noundef %8, i32 noundef %9) #4
  %11 = load ptr, ptr @stderr, align 8, !tbaa !11
  %12 = load ptr, ptr %4, align 8, !tbaa !8
  %13 = getelementptr inbounds [1 x %struct.__va_list_tag], ptr %5, i64 0, i64 0
  %14 = call i32 @vfprintf(ptr noundef %11, ptr noundef %12, ptr noundef %13) #4
  %15 = load ptr, ptr @stderr, align 8, !tbaa !11
  %16 = call i32 (ptr, ptr, ...) @fprintf(ptr noundef %15, ptr noundef @.str.1) #4
  %17 = getelementptr inbounds [1 x %struct.__va_list_tag], ptr %5, i64 0, i64 0
  call void @llvm.va_end.p0(ptr %17)
  call void @llvm.lifetime.end.p0(i64 24, ptr %5) #4
  ret void
}

; Function Attrs: nocallback nofree nosync nounwind willreturn memory(argmem: readwrite)
declare void @llvm.lifetime.start.p0(i64 immarg, ptr captures(none)) #1

; Function Attrs: nocallback nofree nosync nounwind willreturn
declare void @llvm.va_start.p0(ptr) #2

; Function Attrs: nounwind
declare i32 @fprintf(ptr noundef, ptr noundef, ...) #3

; Function Attrs: nounwind
declare i32 @vfprintf(ptr noundef, ptr noundef, ptr noundef) #3

; Function Attrs: nocallback nofree nosync nounwind willreturn
declare void @llvm.va_end.p0(ptr) #2

; Function Attrs: nocallback nofree nosync nounwind willreturn memory(argmem: readwrite)
declare void @llvm.lifetime.end.p0(i64 immarg, ptr captures(none)) #1

; Function Attrs: nounwind uwtable
define dso_local void @setShowWarning(i8 noundef signext %0) #0 {
  %2 = alloca i8, align 1
  store i8 %0, ptr %2, align 1, !tbaa !13
  %3 = load i8, ptr %2, align 1, !tbaa !13
  store i8 %3, ptr @gShowWarning, align 1, !tbaa !13
  ret void
}

; Function Attrs: nounwind uwtable
define dso_local signext i8 @getShowWarning() #0 {
  %1 = load i8, ptr @gShowWarning, align 1, !tbaa !13
  ret i8 %1
}

; Function Attrs: nounwind uwtable
define dso_local signext i8 @isStrict() #0 {
  %1 = load i8, ptr @gStrict, align 1, !tbaa !13
  ret i8 %1
}

; Function Attrs: nounwind uwtable
define dso_local void @setStrict(i8 noundef signext %0) #0 {
  %2 = alloca i8, align 1
  store i8 %0, ptr %2, align 1, !tbaa !13
  %3 = load i8, ptr %2, align 1, !tbaa !13
  store i8 %3, ptr @gStrict, align 1, !tbaa !13
  ret void
}

; Function Attrs: nounwind uwtable
define dso_local signext i8 @isVerbose() #0 {
  %1 = load i8, ptr @gVerbose, align 1, !tbaa !13
  ret i8 %1
}

; Function Attrs: nounwind uwtable
define dso_local void @setVerbose(i8 noundef signext %0) #0 {
  %2 = alloca i8, align 1
  store i8 %0, ptr %2, align 1, !tbaa !13
  %3 = load i8, ptr %2, align 1, !tbaa !13
  store i8 %3, ptr @gVerbose, align 1, !tbaa !13
  ret void
}

; Function Attrs: nounwind uwtable
define dso_local void @warning(i32 noundef %0, ptr noundef %1, ...) #0 {
  %3 = alloca i32, align 4
  %4 = alloca ptr, align 8
  %5 = alloca [1 x %struct.__va_list_tag], align 16
  store i32 %0, ptr %3, align 4, !tbaa !4
  store ptr %1, ptr %4, align 8, !tbaa !8
  %6 = load i8, ptr @gShowWarning, align 1, !tbaa !13
  %7 = icmp ne i8 %6, 0
  br i1 %7, label %8, label %21

8:                                                ; preds = %2
  call void @llvm.lifetime.start.p0(i64 24, ptr %5) #4
  %9 = getelementptr inbounds [1 x %struct.__va_list_tag], ptr %5, i64 0, i64 0
  call void @llvm.va_start.p0(ptr %9)
  %10 = load ptr, ptr @stderr, align 8, !tbaa !11
  %11 = load ptr, ptr @gCurrentFileName, align 8, !tbaa !8
  %12 = load i32, ptr %3, align 4, !tbaa !4
  %13 = call i32 (ptr, ptr, ...) @fprintf(ptr noundef %10, ptr noundef @.str.2, ptr noundef %11, i32 noundef %12) #4
  %14 = load ptr, ptr @stderr, align 8, !tbaa !11
  %15 = load ptr, ptr %4, align 8, !tbaa !8
  %16 = getelementptr inbounds [1 x %struct.__va_list_tag], ptr %5, i64 0, i64 0
  %17 = call i32 @vfprintf(ptr noundef %14, ptr noundef %15, ptr noundef %16) #4
  %18 = load ptr, ptr @stderr, align 8, !tbaa !11
  %19 = call i32 (ptr, ptr, ...) @fprintf(ptr noundef %18, ptr noundef @.str.1) #4
  %20 = getelementptr inbounds [1 x %struct.__va_list_tag], ptr %5, i64 0, i64 0
  call void @llvm.va_end.p0(ptr %20)
  call void @llvm.lifetime.end.p0(i64 24, ptr %5) #4
  br label %21

21:                                               ; preds = %8, %2
  ret void
}


!llvm.module.flags = !{!0, !1, !2, !3}

!0 = !{i32 1, !"wchar_size", i32 4}
!1 = !{i32 8, !"PIC Level", i32 2}
!2 = !{i32 7, !"PIE Level", i32 2}
!3 = !{i32 7, !"uwtable", i32 2}
!4 = !{!5, !5, i64 0}
!5 = !{!"int", !6, i64 0}
!6 = !{!"omnipotent char", !7, i64 0}
!7 = !{!"Simple C/C++ TBAA"}
!8 = !{!9, !9, i64 0}
!9 = !{!"p1 omnipotent char", !10, i64 0}
!10 = !{!"any pointer", !6, i64 0}
!11 = !{!12, !12, i64 0}
!12 = !{!"p1 _ZTS8_IO_FILE", !10, i64 0}
!13 = !{!6, !6, i64 0}
