; ModuleID = 'bench/icu/original/errmsg.ll'
source_filename = "bench/icu/original/errmsg.ll"
target datalayout = "e-m:e-p270:32:32-p271:32:32-p272:64:64-i64:64-i128:128-f80:128-n8:16:32:64-S128"
target triple = "x86_64-pc-linux-gnu"

%struct.__va_list_tag = type { i32, i32, ptr, ptr }

@stderr = external local_unnamed_addr global ptr, align 8
@.str = private unnamed_addr constant [8 x i8] c"%s:%u: \00", align 1
@gCurrentFileName = external local_unnamed_addr global ptr, align 8
@gShowWarning = internal unnamed_addr global i8 1, align 1
@gStrict = internal unnamed_addr global i8 0, align 1
@gVerbose = internal unnamed_addr global i8 0, align 1
@.str.2 = private unnamed_addr constant [17 x i8] c"%s:%u: warning: \00", align 1

; Function Attrs: cold nofree nounwind uwtable
define dso_local void @error(i32 noundef %0, ptr noundef readonly captures(none) %1, ...) local_unnamed_addr #0 {
  %3 = alloca [1 x %struct.__va_list_tag], align 16
  call void @llvm.lifetime.start.p0(i64 24, ptr nonnull %3) #8
  call void @llvm.va_start.p0(ptr nonnull %3)
  %4 = load ptr, ptr @stderr, align 8, !tbaa !4
  %5 = load ptr, ptr @gCurrentFileName, align 8, !tbaa !9
  %6 = call i32 (ptr, ptr, ...) @fprintf(ptr noundef %4, ptr noundef nonnull @.str, ptr noundef %5, i32 noundef %0) #9
  %7 = load ptr, ptr @stderr, align 8, !tbaa !4
  %8 = call i32 @vfprintf(ptr noundef %7, ptr noundef %1, ptr noundef nonnull %3) #9
  %9 = load ptr, ptr @stderr, align 8, !tbaa !4
  %fputc = call i32 @fputc(i32 10, ptr %9)
  call void @llvm.va_end.p0(ptr nonnull %3)
  call void @llvm.lifetime.end.p0(i64 24, ptr nonnull %3) #8
  ret void
}

; Function Attrs: mustprogress nocallback nofree nosync nounwind willreturn memory(argmem: readwrite)
declare void @llvm.lifetime.start.p0(i64 immarg, ptr captures(none)) #1

; Function Attrs: mustprogress nocallback nofree nosync nounwind willreturn
declare void @llvm.va_start.p0(ptr) #2

; Function Attrs: nofree nounwind
declare noundef i32 @fprintf(ptr noundef captures(none), ptr noundef readonly captures(none), ...) local_unnamed_addr #3

; Function Attrs: nofree nounwind
declare noundef i32 @vfprintf(ptr noundef captures(none), ptr noundef readonly captures(none), ptr noundef) local_unnamed_addr #3

; Function Attrs: mustprogress nocallback nofree nosync nounwind willreturn
declare void @llvm.va_end.p0(ptr) #2

; Function Attrs: mustprogress nocallback nofree nosync nounwind willreturn memory(argmem: readwrite)
declare void @llvm.lifetime.end.p0(i64 immarg, ptr captures(none)) #1

; Function Attrs: mustprogress nofree norecurse nosync nounwind willreturn memory(write, argmem: none, inaccessiblemem: none) uwtable
define dso_local void @setShowWarning(i8 noundef signext %0) local_unnamed_addr #4 {
  store i8 %0, ptr @gShowWarning, align 1, !tbaa !11
  ret void
}

; Function Attrs: mustprogress nofree norecurse nosync nounwind willreturn memory(read, argmem: none, inaccessiblemem: none) uwtable
define dso_local signext i8 @getShowWarning() local_unnamed_addr #5 {
  %1 = load i8, ptr @gShowWarning, align 1, !tbaa !11
  ret i8 %1
}

; Function Attrs: mustprogress nofree norecurse nosync nounwind willreturn memory(read, argmem: none, inaccessiblemem: none) uwtable
define dso_local signext i8 @isStrict() local_unnamed_addr #5 {
  %1 = load i8, ptr @gStrict, align 1, !tbaa !11
  ret i8 %1
}

; Function Attrs: mustprogress nofree norecurse nosync nounwind willreturn memory(write, argmem: none, inaccessiblemem: none) uwtable
define dso_local void @setStrict(i8 noundef signext %0) local_unnamed_addr #4 {
  store i8 %0, ptr @gStrict, align 1, !tbaa !11
  ret void
}

; Function Attrs: mustprogress nofree norecurse nosync nounwind willreturn memory(read, argmem: none, inaccessiblemem: none) uwtable
define dso_local signext i8 @isVerbose() local_unnamed_addr #5 {
  %1 = load i8, ptr @gVerbose, align 1, !tbaa !11
  ret i8 %1
}

; Function Attrs: mustprogress nofree norecurse nosync nounwind willreturn memory(write, argmem: none, inaccessiblemem: none) uwtable
define dso_local void @setVerbose(i8 noundef signext %0) local_unnamed_addr #4 {
  store i8 %0, ptr @gVerbose, align 1, !tbaa !11
  ret void
}

; Function Attrs: nofree nounwind uwtable
define dso_local void @warning(i32 noundef %0, ptr noundef readonly captures(none) %1, ...) local_unnamed_addr #6 {
  %3 = alloca [1 x %struct.__va_list_tag], align 16
  %4 = load i8, ptr @gShowWarning, align 1, !tbaa !11
  %.not = icmp eq i8 %4, 0
  br i1 %.not, label %12, label %5

5:                                                ; preds = %2
  call void @llvm.lifetime.start.p0(i64 24, ptr nonnull %3) #8
  call void @llvm.va_start.p0(ptr nonnull %3)
  %6 = load ptr, ptr @stderr, align 8, !tbaa !4
  %7 = load ptr, ptr @gCurrentFileName, align 8, !tbaa !9
  %8 = call i32 (ptr, ptr, ...) @fprintf(ptr noundef %6, ptr noundef nonnull @.str.2, ptr noundef %7, i32 noundef %0) #9
  %9 = load ptr, ptr @stderr, align 8, !tbaa !4
  %10 = call i32 @vfprintf(ptr noundef %9, ptr noundef %1, ptr noundef nonnull %3) #9
  %11 = load ptr, ptr @stderr, align 8, !tbaa !4
  %fputc = call i32 @fputc(i32 10, ptr %11)
  call void @llvm.va_end.p0(ptr nonnull %3)
  call void @llvm.lifetime.end.p0(i64 24, ptr nonnull %3) #8
  br label %12

12:                                               ; preds = %5, %2
  ret void
}

; Function Attrs: nofree nounwind
declare noundef i32 @fputc(i32 noundef, ptr noundef captures(none)) local_unnamed_addr #7


!llvm.module.flags = !{!0, !1, !2, !3}

!0 = !{i32 1, !"wchar_size", i32 4}
!1 = !{i32 8, !"PIC Level", i32 2}
!2 = !{i32 7, !"PIE Level", i32 2}
!3 = !{i32 7, !"uwtable", i32 2}
!4 = !{!5, !5, i64 0}
!5 = !{!"p1 _ZTS8_IO_FILE", !6, i64 0}
!6 = !{!"any pointer", !7, i64 0}
!7 = !{!"omnipotent char", !8, i64 0}
!8 = !{!"Simple C/C++ TBAA"}
!9 = !{!10, !10, i64 0}
!10 = !{!"p1 omnipotent char", !6, i64 0}
!11 = !{!7, !7, i64 0}
